target datalayout = "e-m:e-p270:32:32-p271:32:32-p272:64:64-i64:64-i128:128-f80:128-n8:16:32:64-S128"
target triple = "x86_64-pc-linux-gnu"

%struct.sbcast_cred = type { i64, %struct.sbcast_cred_arg_t, ptr, ptr, i8 }
%struct.sbcast_cred_arg_t = type { i32, i32, i32, ptr, i64, ptr }

@.str.3 = private unnamed_addr constant [22 x i8] c"%s: _encode() failure\00", align 1
@.str.6 = private unnamed_addr constant [13 x i8] c"cred_munge.c\00", align 1
@__func__.sbcast_p_create = private unnamed_addr constant [16 x i8] c"sbcast_p_create\00", align 1

; Function Attrs: nounwind uwtable
define dso_local ptr @sbcast_p_create(ptr noundef %0, i16 noundef zeroext %1) #0 {
  %3 = alloca ptr, align 8
  %4 = alloca ptr, align 8
  %5 = alloca i16, align 2
  %6 = alloca ptr, align 8
  %7 = alloca ptr, align 8
  %8 = alloca i32, align 4
  %9 = alloca i32, align 4
  store ptr %0, ptr %4, align 8
  store i16 %1, ptr %5, align 2
  call void @llvm.lifetime.start.p0(i64 8, ptr %6) #5
  %10 = call ptr @slurm_xcalloc(i64 noundef 1, i64 noundef 72, i1 noundef zeroext true, i1 noundef zeroext false, ptr noundef @.str.6, i32 noundef 391, ptr noundef @__func__.sbcast_p_create)
  store ptr %10, ptr %6, align 8
  call void @llvm.lifetime.start.p0(i64 8, ptr %7) #5
  %11 = load ptr, ptr %4, align 8
  %12 = load i16, ptr %5, align 2
  %13 = call ptr @sbcast_cred_pack(ptr noundef %11, i16 noundef zeroext %12)
  %14 = load ptr, ptr %6, align 8
  %15 = getelementptr inbounds nuw %struct.sbcast_cred, ptr %14, i32 0, i32 2
  store ptr %13, ptr %15, align 8
  %16 = load ptr, ptr %6, align 8
  %17 = getelementptr inbounds nuw %struct.sbcast_cred, ptr %16, i32 0, i32 2
  %18 = load ptr, ptr %17, align 8
  %19 = call ptr @_encode(ptr noundef %18)
  store ptr %19, ptr %7, align 8
  %20 = icmp ne ptr %19, null
  br i1 %20, label %24, label %21

21:                                               ; preds = %2
  %22 = call i32 (ptr, ...) @slurm_error(ptr noundef @.str.3, ptr noundef @__func__.sbcast_p_create)
  %23 = load ptr, ptr %6, align 8
  call void @delete_sbcast_cred(ptr noundef %23)
  store ptr null, ptr %3, align 8
  store i32 1, ptr %8, align 4
  br label %42

24:                                               ; preds = %2
  br label %25

25:                                               ; preds = %24
  call void @llvm.lifetime.start.p0(i64 4, ptr %9) #5
  store i32 0, ptr %9, align 4
  %26 = load ptr, ptr %7, align 8
  %27 = icmp ne ptr %26, null
  br i1 %27, label %28, label %33

28:                                               ; preds = %25
  %29 = load ptr, ptr %7, align 8
  %30 = call i64 @strlen(ptr noundef %29) #6
  %31 = trunc i64 %30 to i32
  %32 = add i32 %31, 1
  store i32 %32, ptr %9, align 4
  br label %33

33:                                               ; preds = %28, %25
  %34 = load ptr, ptr %7, align 8
  %35 = load i32, ptr %9, align 4
  %36 = load ptr, ptr %6, align 8
  %37 = getelementptr inbounds nuw %struct.sbcast_cred, ptr %36, i32 0, i32 2
  %38 = load ptr, ptr %37, align 8
  call void @slurm_packmem(ptr noundef %34, i32 noundef %35, ptr noundef %38)
  call void @llvm.lifetime.end.p0(i64 4, ptr %9) #5
  br label %39

39:                                               ; preds = %33
  br label %40

40:                                               ; preds = %39
  call void @slurm_xfree(ptr noundef %7)
  %41 = load ptr, ptr %6, align 8
  store ptr %41, ptr %3, align 8
  store i32 1, ptr %8, align 4
  br label %42

42:                                               ; preds = %40, %21
  call void @llvm.lifetime.end.p0(i64 8, ptr %7) #5
  call void @llvm.lifetime.end.p0(i64 8, ptr %6) #5
  %43 = load ptr, ptr %3, align 8
  ret ptr %43
}