; Function Attrs: nounwind uwtable
define dso_local ptr @sbcast_p_create(ptr noundef %0, i16 noundef zeroext %1) local_unnamed_addr #0 {
  %3 = alloca ptr, align 8
  %4 = tail call ptr @slurm_xcalloc(i64 noundef 1, i64 noundef 72, i1 noundef zeroext true, i1 noundef zeroext false, ptr noundef nonnull @.str.6, i32 noundef 391, ptr noundef nonnull @__func__.sbcast_p_create) #7
  call void @llvm.lifetime.start.p0(i64 8, ptr nonnull %3) #7
  %5 = tail call ptr @sbcast_cred_pack(ptr noundef %0, i16 noundef zeroext %1) #7
  %6 = getelementptr inbounds nuw i8, ptr %4, i64 48
  store ptr %5, ptr %6, align 8
  %7 = tail call fastcc ptr @_encode(ptr noundef %5)
  store ptr %7, ptr %3, align 8
  %.not = icmp eq ptr %7, null
  br i1 %.not, label %8, label %10

8:                                                ; preds = %2
  %9 = tail call i32 (ptr, ...) @slurm_error(ptr noundef nonnull @.str.3, ptr noundef nonnull @__func__.sbcast_p_create) #7
  tail call void @delete_sbcast_cred(ptr noundef nonnull %4) #7
  br label %15

10:                                               ; preds = %2
  %11 = tail call i64 @strlen(ptr noundef nonnull dereferenceable(1) %7) #8
  %12 = trunc i64 %11 to i32
  %13 = add i32 %12, 1
  %14 = load ptr, ptr %6, align 8
  tail call void @slurm_packmem(ptr noundef nonnull %7, i32 noundef %13, ptr noundef %14) #7
  call void @slurm_xfree(ptr noundef nonnull %3) #7
  br label %15

15:                                               ; preds = %10, %8
  %.08 = phi ptr [ %4, %10 ], [ null, %8 ]
  call void @llvm.lifetime.end.p0(i64 8, ptr nonnull %3) #7
  ret ptr %.08
}